target datalayout = "e-m:e-p270:32:32-p271:32:32-p272:64:64-i64:64-i128:128-f80:128-n8:16:32:64-S128"
target triple = "x86_64-pc-linux-gnu"

%struct.ossl_decoder_st = type { %struct.ossl_endecode_base_st, ptr, ptr, ptr, ptr, ptr, ptr, ptr, ptr, ptr }
%struct.ossl_endecode_base_st = type { ptr, i32, ptr, ptr, ptr, %struct.CRYPTO_REF_COUNT }
%struct.CRYPTO_REF_COUNT = type { i32 }

@.str = private unnamed_addr constant [47 x i8] c"../openssl/crypto/encode_decode/decoder_meth.c\00", align 1
@__func__.OSSL_DECODER_get0_provider = private unnamed_addr constant [27 x i8] c"OSSL_DECODER_get0_provider\00", align 1

; Function Attrs: nounwind uwtable
define ptr @OSSL_DECODER_get0_provider(ptr noundef %0) #0 {
  %2 = alloca ptr, align 8
  %3 = alloca ptr, align 8
  store ptr %0, ptr %3, align 8, !tbaa !3
  %4 = load ptr, ptr %3, align 8, !tbaa !3
  %5 = icmp ne ptr %4, null
  %6 = zext i1 %5 to i32
  %7 = icmp ne i32 %6, 0
  %8 = xor i1 %7, true
  %9 = xor i1 %8, true
  %10 = zext i1 %9 to i32
  %11 = sext i32 %10 to i64
  %12 = call i64 @llvm.expect.i64(i64 %11, i64 1)
  %13 = icmp ne i64 %12, 0
  br i1 %13, label %15, label %14

14:                                               ; preds = %1
  call void @ERR_new()
  call void @ERR_set_debug(ptr noundef @.str, i32 noundef 467, ptr noundef @__func__.OSSL_DECODER_get0_provider)
  call void (i32, i32, ptr, ...) @ERR_set_error(i32 noundef 60, i32 noundef 786690, ptr noundef null)
  store ptr null, ptr %2, align 8
  br label %20

15:                                               ; preds = %1
  %16 = load ptr, ptr %3, align 8, !tbaa !3
  %17 = getelementptr inbounds nuw %struct.ossl_decoder_st, ptr %16, i32 0, i32 0
  %18 = getelementptr inbounds nuw %struct.ossl_endecode_base_st, ptr %17, i32 0, i32 0
  %19 = load ptr, ptr %18, align 8, !tbaa !22
  store ptr %19, ptr %2, align 8
  br label %20

20:                                               ; preds = %15, %14
  %21 = load ptr, ptr %2, align 8
  ret ptr %21
}