; Function Attrs: nounwind uwtable
define ptr @OSSL_DECODER_get0_provider(ptr noundef readonly captures(address_is_null) %0) local_unnamed_addr #2 {
  %.not = icmp eq ptr %0, null
  br i1 %.not, label %2, label %3, !prof !48

2:                                                ; preds = %1
  tail call void @ERR_new() #8
  tail call void @ERR_set_debug(ptr noundef nonnull @.str, i32 noundef 467, ptr noundef nonnull @__func__.OSSL_DECODER_get0_provider) #8
  tail call void (i32, i32, ptr, ...) @ERR_set_error(i32 noundef 60, i32 noundef 786690, ptr noundef null) #8
  br label %5

3:                                                ; preds = %1
  %4 = load ptr, ptr %0, align 8, !tbaa !16
  br label %5

5:                                                ; preds = %3, %2
  %.0 = phi ptr [ %4, %3 ], [ null, %2 ]
  ret ptr %.0
}